target datalayout = "e-m:e-p270:32:32-p271:32:32-p272:64:64-i64:64-i128:128-f80:128-n8:16:32:64-S128"
target triple = "x86_64-pc-linux-gnu"

%struct.ZSTD_FrameHeader = type { i64, i64, i32, i32, i32, i32, i32, i32, i32 }
%struct.ZSTDv05_parameters = type { i64, i32, i32, i32, i32, i32, i32, i32 }
%struct.ZSTDv06_frameParams_s = type { i64, i32 }
%struct.ZSTDv07_frameParams = type { i64, i32, i32, i32 }

; Function Attrs: inlinehint nounwind uwtable
define internal i32 @MEM_swap32(i32 noundef %0) #4 {
  %2 = alloca i32, align 4
  store i32 %0, ptr %2, align 4, !tbaa !43
  %3 = load i32, ptr %2, align 4, !tbaa !43
  %4 = call i32 @llvm.bswap.i32(i32 %3)
  ret i32 %4
}

; Function Attrs: inlinehint nounwind uwtable
define internal i32 @MEM_read32(ptr noundef %0) #4 {
  %2 = alloca ptr, align 8
  store ptr %0, ptr %2, align 8, !tbaa !23
  %3 = load ptr, ptr %2, align 8, !tbaa !23
  %4 = load i32, ptr %3, align 1, !tbaa !43
  ret i32 %4
}

; Function Attrs: inlinehint nounwind uwtable
define internal i32 @MEM_isLittleEndian() #4 {
  ret i32 1
}

; Function Attrs: inlinehint nounwind uwtable
define internal i32 @MEM_readLE32(ptr noundef %0) #4 {
  %2 = alloca i32, align 4
  %3 = alloca ptr, align 8
  store ptr %0, ptr %3, align 8, !tbaa !23
  %4 = call i32 @MEM_isLittleEndian()
  %5 = icmp ne i32 %4, 0
  br i1 %5, label %6, label %9

6:                                                ; preds = %1
  %7 = load ptr, ptr %3, align 8, !tbaa !23
  %8 = call i32 @MEM_read32(ptr noundef %7)
  store i32 %8, ptr %2, align 4
  br label %13

9:                                                ; preds = %1
  %10 = load ptr, ptr %3, align 8, !tbaa !23
  %11 = call i32 @MEM_read32(ptr noundef %10)
  %12 = call i32 @MEM_swap32(i32 noundef %11)
  store i32 %12, ptr %2, align 4
  br label %13

13:                                               ; preds = %9, %6
  %14 = load i32, ptr %2, align 4
  ret i32 %14
}

; Function Attrs: nounwind uwtable
define i64 @ZSTD_getFrameHeader(ptr noundef %0, ptr noundef %1, i64 noundef %2) #0 {
  %4 = alloca ptr, align 8
  %5 = alloca ptr, align 8
  %6 = alloca i64, align 8
  store ptr %0, ptr %4, align 8, !tbaa !23
  store ptr %1, ptr %5, align 8, !tbaa !23
  store i64 %2, ptr %6, align 8, !tbaa !24
  %7 = load ptr, ptr %4, align 8, !tbaa !23
  %8 = load ptr, ptr %5, align 8, !tbaa !23
  %9 = load i64, ptr %6, align 8, !tbaa !24
  %10 = call i64 @ZSTD_getFrameHeader_advanced(ptr noundef %7, ptr noundef %8, i64 noundef %9, i32 noundef 0)
  ret i64 %10
}

; Function Attrs: inlinehint nounwind uwtable
define internal i64 @ZSTD_getDecompressedSize_legacy(ptr noundef %0, i64 noundef %1) #4 {
  %3 = alloca i64, align 8
  %4 = alloca ptr, align 8
  %5 = alloca i64, align 8
  %6 = alloca i32, align 4
  %7 = alloca i32, align 4
  %8 = alloca %struct.ZSTDv05_parameters, align 8
  %9 = alloca i64, align 8
  %10 = alloca %struct.ZSTDv06_frameParams_s, align 8
  %11 = alloca i64, align 8
  %12 = alloca %struct.ZSTDv07_frameParams, align 8
  %13 = alloca i64, align 8
  store ptr %0, ptr %4, align 8, !tbaa !23
  store i64 %1, ptr %5, align 8, !tbaa !24
  call void @llvm.lifetime.start.p0(i64 4, ptr %6) #11
  %14 = load ptr, ptr %4, align 8, !tbaa !23
  %15 = load i64, ptr %5, align 8, !tbaa !24
  %16 = call i32 @ZSTD_isLegacy(ptr noundef %14, i64 noundef %15)
  store i32 %16, ptr %6, align 4, !tbaa !43
  %17 = load i32, ptr %6, align 4, !tbaa !43
  %18 = icmp ult i32 %17, 5
  br i1 %18, label %19, label %20

19:                                               ; preds = %2
  store i64 0, ptr %3, align 8
  store i32 1, ptr %7, align 4
  br label %63

20:                                               ; preds = %2
  %21 = load i32, ptr %6, align 4, !tbaa !43
  %22 = icmp eq i32 %21, 5
  br i1 %22, label %23, label %34

23:                                               ; preds = %20
  call void @llvm.lifetime.start.p0(i64 40, ptr %8) #11
  call void @llvm.lifetime.start.p0(i64 8, ptr %9) #11
  %24 = load ptr, ptr %4, align 8, !tbaa !23
  %25 = load i64, ptr %5, align 8, !tbaa !24
  %26 = call i64 @ZSTDv05_getFrameParams(ptr noundef %8, ptr noundef %24, i64 noundef %25)
  store i64 %26, ptr %9, align 8, !tbaa !24
  %27 = load i64, ptr %9, align 8, !tbaa !24
  %28 = icmp ne i64 %27, 0
  br i1 %28, label %29, label %30

29:                                               ; preds = %23
  store i64 0, ptr %3, align 8
  store i32 1, ptr %7, align 4
  br label %33

30:                                               ; preds = %23
  %31 = getelementptr inbounds nuw %struct.ZSTDv05_parameters, ptr %8, i32 0, i32 0
  %32 = load i64, ptr %31, align 8, !tbaa !57
  store i64 %32, ptr %3, align 8
  store i32 1, ptr %7, align 4
  br label %33

33:                                               ; preds = %30, %29
  call void @llvm.lifetime.end.p0(i64 8, ptr %9) #11
  call void @llvm.lifetime.end.p0(i64 40, ptr %8) #11
  br label %63

34:                                               ; preds = %20
  %35 = load i32, ptr %6, align 4, !tbaa !43
  %36 = icmp eq i32 %35, 6
  br i1 %36, label %37, label %48

37:                                               ; preds = %34
  call void @llvm.lifetime.start.p0(i64 16, ptr %10) #11
  call void @llvm.lifetime.start.p0(i64 8, ptr %11) #11
  %38 = load ptr, ptr %4, align 8, !tbaa !23
  %39 = load i64, ptr %5, align 8, !tbaa !24
  %40 = call i64 @ZSTDv06_getFrameParams(ptr noundef %10, ptr noundef %38, i64 noundef %39)
  store i64 %40, ptr %11, align 8, !tbaa !24
  %41 = load i64, ptr %11, align 8, !tbaa !24
  %42 = icmp ne i64 %41, 0
  br i1 %42, label %43, label %44

43:                                               ; preds = %37
  store i64 0, ptr %3, align 8
  store i32 1, ptr %7, align 4
  br label %47

44:                                               ; preds = %37
  %45 = getelementptr inbounds nuw %struct.ZSTDv06_frameParams_s, ptr %10, i32 0, i32 0
  %46 = load i64, ptr %45, align 8, !tbaa !59
  store i64 %46, ptr %3, align 8
  store i32 1, ptr %7, align 4
  br label %47

47:                                               ; preds = %44, %43
  call void @llvm.lifetime.end.p0(i64 8, ptr %11) #11
  call void @llvm.lifetime.end.p0(i64 16, ptr %10) #11
  br label %63

48:                                               ; preds = %34
  %49 = load i32, ptr %6, align 4, !tbaa !43
  %50 = icmp eq i32 %49, 7
  br i1 %50, label %51, label %62

51:                                               ; preds = %48
  call void @llvm.lifetime.start.p0(i64 24, ptr %12) #11
  call void @llvm.lifetime.start.p0(i64 8, ptr %13) #11
  %52 = load ptr, ptr %4, align 8, !tbaa !23
  %53 = load i64, ptr %5, align 8, !tbaa !24
  %54 = call i64 @ZSTDv07_getFrameParams(ptr noundef %12, ptr noundef %52, i64 noundef %53)
  store i64 %54, ptr %13, align 8, !tbaa !24
  %55 = load i64, ptr %13, align 8, !tbaa !24
  %56 = icmp ne i64 %55, 0
  br i1 %56, label %57, label %58

57:                                               ; preds = %51
  store i64 0, ptr %3, align 8
  store i32 1, ptr %7, align 4
  br label %61

58:                                               ; preds = %51
  %59 = getelementptr inbounds nuw %struct.ZSTDv07_frameParams, ptr %12, i32 0, i32 0
  %60 = load i64, ptr %59, align 8, !tbaa !61
  store i64 %60, ptr %3, align 8
  store i32 1, ptr %7, align 4
  br label %61

61:                                               ; preds = %58, %57
  call void @llvm.lifetime.end.p0(i64 8, ptr %13) #11
  call void @llvm.lifetime.end.p0(i64 24, ptr %12) #11
  br label %63

62:                                               ; preds = %48
  store i64 0, ptr %3, align 8
  store i32 1, ptr %7, align 4
  br label %63

63:                                               ; preds = %62, %61, %47, %33, %19
  call void @llvm.lifetime.end.p0(i64 4, ptr %6) #11
  %64 = load i64, ptr %3, align 8
  ret i64 %64
}

; Function Attrs: inlinehint nounwind uwtable
define internal i32 @ZSTD_isLegacy(ptr noundef %0, i64 noundef %1) #4 {
  %3 = alloca i32, align 4
  %4 = alloca ptr, align 8
  %5 = alloca i64, align 8
  %6 = alloca i32, align 4
  %7 = alloca i32, align 4
  store ptr %0, ptr %4, align 8, !tbaa !23
  store i64 %1, ptr %5, align 8, !tbaa !24
  call void @llvm.lifetime.start.p0(i64 4, ptr %6) #11
  %8 = load i64, ptr %5, align 8, !tbaa !24
  %9 = icmp ult i64 %8, 4
  br i1 %9, label %10, label %11

10:                                               ; preds = %2
  store i32 0, ptr %3, align 4
  store i32 1, ptr %7, align 4
  br label %19

11:                                               ; preds = %2
  %12 = load ptr, ptr %4, align 8, !tbaa !23
  %13 = call i32 @MEM_readLE32(ptr noundef %12)
  store i32 %13, ptr %6, align 4, !tbaa !43
  %14 = load i32, ptr %6, align 4, !tbaa !43
  switch i32 %14, label %18 [
    i32 -47205083, label %15
    i32 -47205082, label %16
    i32 -47205081, label %17
  ]

15:                                               ; preds = %11
  store i32 5, ptr %3, align 4
  store i32 1, ptr %7, align 4
  br label %19

16:                                               ; preds = %11
  store i32 6, ptr %3, align 4
  store i32 1, ptr %7, align 4
  br label %19

17:                                               ; preds = %11
  store i32 7, ptr %3, align 4
  store i32 1, ptr %7, align 4
  br label %19

18:                                               ; preds = %11
  store i32 0, ptr %3, align 4
  store i32 1, ptr %7, align 4
  br label %19

19:                                               ; preds = %18, %17, %16, %15, %10
  call void @llvm.lifetime.end.p0(i64 4, ptr %6) #11
  %20 = load i32, ptr %3, align 4
  ret i32 %20
}

; Function Attrs: nounwind uwtable
define i64 @ZSTD_getFrameContentSize(ptr noundef %0, i64 noundef %1) #0 {
  %3 = alloca i64, align 8
  %4 = alloca ptr, align 8
  %5 = alloca i64, align 8
  %6 = alloca i64, align 8
  %7 = alloca %struct.ZSTD_FrameHeader, align 8
  %8 = alloca i32, align 4
  store ptr %0, ptr %4, align 8, !tbaa !23
  store i64 %1, ptr %5, align 8, !tbaa !24
  %9 = load ptr, ptr %4, align 8, !tbaa !23
  %10 = load i64, ptr %5, align 8, !tbaa !24
  %11 = call i32 @ZSTD_isLegacy(ptr noundef %9, i64 noundef %10)
  %12 = icmp ne i32 %11, 0
  br i1 %12, label %13, label %24

13:                                               ; preds = %2
  call void @llvm.lifetime.start.p0(i64 8, ptr %6) #11
  %14 = load ptr, ptr %4, align 8, !tbaa !23
  %15 = load i64, ptr %5, align 8, !tbaa !24
  %16 = call i64 @ZSTD_getDecompressedSize_legacy(ptr noundef %14, i64 noundef %15)
  store i64 %16, ptr %6, align 8, !tbaa !56
  %17 = load i64, ptr %6, align 8, !tbaa !56
  %18 = icmp eq i64 %17, 0
  br i1 %18, label %19, label %20

19:                                               ; preds = %13
  br label %22

20:                                               ; preds = %13
  %21 = load i64, ptr %6, align 8, !tbaa !56
  br label %22

22:                                               ; preds = %20, %19
  %23 = phi i64 [ -1, %19 ], [ %21, %20 ]
  store i64 %23, ptr %3, align 8
  call void @llvm.lifetime.end.p0(i64 8, ptr %6) #11
  br label %39

24:                                               ; preds = %2
  call void @llvm.lifetime.start.p0(i64 48, ptr %7) #11
  %25 = load ptr, ptr %4, align 8, !tbaa !23
  %26 = load i64, ptr %5, align 8, !tbaa !24
  %27 = call i64 @ZSTD_getFrameHeader(ptr noundef %7, ptr noundef %25, i64 noundef %26)
  %28 = icmp ne i64 %27, 0
  br i1 %28, label %29, label %30

29:                                               ; preds = %24
  store i64 -2, ptr %3, align 8
  store i32 1, ptr %8, align 4
  br label %38

30:                                               ; preds = %24
  %31 = getelementptr inbounds nuw %struct.ZSTD_FrameHeader, ptr %7, i32 0, i32 3
  %32 = load i32, ptr %31, align 4, !tbaa !49
  %33 = icmp eq i32 %32, 1
  br i1 %33, label %34, label %35

34:                                               ; preds = %30
  store i64 0, ptr %3, align 8
  store i32 1, ptr %8, align 4
  br label %38

35:                                               ; preds = %30
  %36 = getelementptr inbounds nuw %struct.ZSTD_FrameHeader, ptr %7, i32 0, i32 0
  %37 = load i64, ptr %36, align 8, !tbaa !52
  store i64 %37, ptr %3, align 8
  store i32 1, ptr %8, align 4
  br label %38

38:                                               ; preds = %35, %34, %29
  call void @llvm.lifetime.end.p0(i64 48, ptr %7) #11
  br label %39

39:                                               ; preds = %38, %22
  %40 = load i64, ptr %3, align 8
  ret i64 %40
}