; Function Attrs: nounwind uwtable
define i64 @ZSTD_getFrameContentSize(ptr noundef %0, i64 noundef %1) local_unnamed_addr #0 {
  %3 = alloca %struct.ZSTDv05_parameters, align 8
  %4 = alloca %struct.ZSTDv06_frameParams_s, align 8
  %5 = alloca %struct.ZSTDv07_frameParams, align 8
  %6 = alloca %struct.ZSTD_FrameHeader, align 8
  %7 = icmp ult i64 %1, 4
  br i1 %7, label %ZSTD_isLegacy.exit, label %8

8:                                                ; preds = %2
  %.val.i = load i32, ptr %0, align 1, !tbaa !47
  switch i32 %.val.i, label %ZSTD_isLegacy.exit [
    i32 -47205083, label %9
    i32 -47205082, label %12
    i32 -47205081, label %15
  ]

9:                                                ; preds = %8
  call void @llvm.lifetime.start.p0(i64 40, ptr nonnull %3) #17
  %10 = call i64 @ZSTDv05_getFrameParams(ptr noundef nonnull %3, ptr noundef nonnull %0, i64 noundef %1) #17
  %.not17.i = icmp eq i64 %10, 0
  %11 = load i64, ptr %3, align 8
  %.1.i = select i1 %.not17.i, i64 %11, i64 0
  call void @llvm.lifetime.end.p0(i64 40, ptr nonnull %3) #17
  br label %ZSTD_getDecompressedSize_legacy.exit

12:                                               ; preds = %8
  call void @llvm.lifetime.start.p0(i64 16, ptr nonnull %4) #17
  %13 = call i64 @ZSTDv06_getFrameParams(ptr noundef nonnull %4, ptr noundef nonnull %0, i64 noundef %1) #17
  %.not16.i = icmp eq i64 %13, 0
  %14 = load i64, ptr %4, align 8
  %.2.i = select i1 %.not16.i, i64 %14, i64 0
  call void @llvm.lifetime.end.p0(i64 16, ptr nonnull %4) #17
  br label %ZSTD_getDecompressedSize_legacy.exit

15:                                               ; preds = %8
  call void @llvm.lifetime.start.p0(i64 24, ptr nonnull %5) #17
  %16 = call i64 @ZSTDv07_getFrameParams(ptr noundef nonnull %5, ptr noundef nonnull %0, i64 noundef %1) #17
  %.not.i = icmp eq i64 %16, 0
  %17 = load i64, ptr %5, align 8
  %.3.i = select i1 %.not.i, i64 %17, i64 0
  call void @llvm.lifetime.end.p0(i64 24, ptr nonnull %5) #17
  br label %ZSTD_getDecompressedSize_legacy.exit

ZSTD_getDecompressedSize_legacy.exit:             ; preds = %9, %12, %15
  %.0.i9 = phi i64 [ %.1.i, %9 ], [ %.2.i, %12 ], [ %.3.i, %15 ]
  %18 = icmp eq i64 %.0.i9, 0
  %19 = select i1 %18, i64 -1, i64 %.0.i9
  br label %25

ZSTD_isLegacy.exit:                               ; preds = %8, %2
  call void @llvm.lifetime.start.p0(i64 48, ptr nonnull %6) #17
  %20 = call i64 @ZSTD_getFrameHeader_advanced(ptr noundef nonnull %6, ptr noundef %0, i64 noundef %1, i32 noundef 0)
  %.not8 = icmp eq i64 %20, 0
  %21 = getelementptr inbounds nuw i8, ptr %6, i64 20
  %22 = load i32, ptr %21, align 4
  %23 = icmp eq i32 %22, 1
  %24 = load i64, ptr %6, align 8
  %spec.select = select i1 %23, i64 0, i64 %24
  %.1 = select i1 %.not8, i64 %spec.select, i64 -2
  call void @llvm.lifetime.end.p0(i64 48, ptr nonnull %6) #17
  br label %25

25:                                               ; preds = %ZSTD_isLegacy.exit, %ZSTD_getDecompressedSize_legacy.exit
  %.0 = phi i64 [ %19, %ZSTD_getDecompressedSize_legacy.exit ], [ %.1, %ZSTD_isLegacy.exit ]
  ret i64 %.0
}